; Function Attrs: nounwind uwtable
define internal fastcc noundef i32 @_data_list_join(ptr noundef %0, ptr noundef %1) unnamed_addr #0 {
  %3 = load i64, ptr getelementptr inbounds nuw (i8, ptr @slurm_conf, i64 320), align 8
  %4 = and i64 %3, 256
  %.not = icmp eq i64 %4, 0
  br i1 %.not, label %9, label %5

5:                                                ; preds = %2
  %6 = tail call i32 @get_log_level() #16
  %7 = icmp sgt i32 %6, 3
  br i1 %7, label %8, label %9

8:                                                ; preds = %5
  tail call void (i32, ptr, ...) @log_var(i32 noundef 4, ptr noundef nonnull @.str.80, ptr noundef nonnull @__func__._data_list_join, ptr noundef %0, ptr noundef %1) #16
  br label %9

9:                                                ; preds = %5, %8, %2
  %10 = tail call ptr @data_list_append(ptr noundef %1)
  %11 = tail call ptr @data_copy(ptr noundef %10, ptr noundef %0)
  %12 = load i64, ptr getelementptr inbounds nuw (i8, ptr @slurm_conf, i64 320), align 8
  %13 = and i64 %12, 256
  %.not12 = icmp eq i64 %13, 0
  br i1 %.not12, label %22, label %14

14:                                               ; preds = %9
  %15 = tail call i32 @get_log_level() #16
  %16 = icmp sgt i32 %15, 3
  br i1 %16, label %17, label %22

17:                                               ; preds = %14
  %18 = getelementptr inbounds nuw i8, ptr %1, i64 8
  %19 = load ptr, ptr %18, align 8
  %20 = getelementptr inbounds nuw i8, ptr %19, i64 8
  %21 = load i64, ptr %20, align 8
  tail call void (i32, ptr, ...) @log_var(i32 noundef 4, ptr noundef nonnull @.str.81, ptr noundef nonnull @__func__._data_list_join, ptr noundef %0, ptr noundef %1, i64 noundef %21, ptr noundef %10) #16
  br label %22

22:                                               ; preds = %14, %17, %9
  ret i32 1
}